; ModuleID = '22/828.c'
source_filename = "22/828.c"
target datalayout = "e-m:e-p270:32:32-p271:32:32-p272:64:64-i64:64-f80:128-n8:16:32:64-S128"
target triple = "x86_64-pc-linux-gnu"

@.str = private unnamed_addr constant [5 x i8] c"%d%c\00", align 1
@.str.1 = private unnamed_addr constant [3 x i8] c"No\00", align 1
@.str.2 = private unnamed_addr constant [3 x i8] c"%d\00", align 1

; Function Attrs: noinline nounwind uwtable
define dso_local i32 @main() #0 {
  %1 = alloca i32, align 4
  %2 = alloca [301 x i32], align 16
  %3 = alloca i8, align 1
  %4 = alloca i32, align 4
  %5 = alloca i32, align 4
  %6 = alloca i32, align 4
  %7 = alloca i32, align 4
  %8 = alloca i32, align 4
  %9 = alloca i32, align 4
  store i32 0, i32* %1, align 4
  store i32 0, i32* %7, align 4
  store i32 0, i32* %4, align 4
  br label %10

10:                                               ; preds = %20, %0
  %11 = load i32, i32* %4, align 4
  %12 = sext i32 %11 to i64
  %13 = getelementptr inbounds [301 x i32], [301 x i32]* %2, i64 0, i64 %12
  %14 = call i32 (i8*, ...) @__isoc99_scanf(i8* getelementptr inbounds ([5 x i8], [5 x i8]* @.str, i64 0, i64 0), i32* %13, i8* %3)
  %15 = load i8, i8* %3, align 1
  %16 = sext i8 %15 to i32
  %17 = icmp ne i32 %16, 44
  br i1 %17, label %18, label %19

18:                                               ; preds = %10
  br label %23

19:                                               ; preds = %10
  br label %20

20:                                               ; preds = %19
  %21 = load i32, i32* %4, align 4
  %22 = add nsw i32 %21, 1
  store i32 %22, i32* %4, align 4
  br label %10

23:                                               ; preds = %18
  %24 = load i32, i32* %4, align 4
  %25 = add nsw i32 %24, 1
  store i32 %25, i32* %8, align 4
  %26 = load i32, i32* %8, align 4
  %27 = icmp eq i32 %26, 1
  br i1 %27, label %28, label %30

28:                                               ; preds = %23
  %29 = call i32 (i8*, ...) @printf(i8* getelementptr inbounds ([3 x i8], [3 x i8]* @.str.1, i64 0, i64 0))
  br label %133

30:                                               ; preds = %23
  store i32 1, i32* %4, align 4
  br label %31

31:                                               ; preds = %48, %30
  %32 = load i32, i32* %4, align 4
  %33 = load i32, i32* %8, align 4
  %34 = icmp slt i32 %32, %33
  br i1 %34, label %35, label %51

35:                                               ; preds = %31
  %36 = load i32, i32* %4, align 4
  %37 = sext i32 %36 to i64
  %38 = getelementptr inbounds [301 x i32], [301 x i32]* %2, i64 0, i64 %37
  %39 = load i32, i32* %38, align 4
  %40 = load i32, i32* %4, align 4
  %41 = sub nsw i32 %40, 1
  %42 = sext i32 %41 to i64
  %43 = getelementptr inbounds [301 x i32], [301 x i32]* %2, i64 0, i64 %42
  %44 = load i32, i32* %43, align 4
  %45 = icmp ne i32 %39, %44
  br i1 %45, label %46, label %47

46:                                               ; preds = %35
  store i32 1, i32* %7, align 4
  br label %47

47:                                               ; preds = %46, %35
  br label %48

48:                                               ; preds = %47
  %49 = load i32, i32* %4, align 4
  %50 = add nsw i32 %49, 1
  store i32 %50, i32* %4, align 4
  br label %31

51:                                               ; preds = %31
  %52 = load i32, i32* %7, align 4
  %53 = icmp eq i32 %52, 0
  br i1 %53, label %54, label %56

54:                                               ; preds = %51
  %55 = call i32 (i8*, ...) @printf(i8* getelementptr inbounds ([3 x i8], [3 x i8]* @.str.1, i64 0, i64 0))
  br label %132

56:                                               ; preds = %51
  %57 = getelementptr inbounds [301 x i32], [301 x i32]* %2, i64 0, i64 0
  %58 = load i32, i32* %57, align 16
  store i32 %58, i32* %5, align 4
  store i32 1, i32* %4, align 4
  br label %59

59:                                               ; preds = %77, %56
  %60 = load i32, i32* %4, align 4
  %61 = load i32, i32* %8, align 4
  %62 = icmp slt i32 %60, %61
  br i1 %62, label %63, label %80

63:                                               ; preds = %59
  %64 = load i32, i32* %4, align 4
  %65 = sext i32 %64 to i64
  %66 = getelementptr inbounds [301 x i32], [301 x i32]* %2, i64 0, i64 %65
  %67 = load i32, i32* %66, align 4
  %68 = load i32, i32* %5, align 4
  %69 = icmp sgt i32 %67, %68
  br i1 %69, label %70, label %76

70:                                               ; preds = %63
  %71 = load i32, i32* %4, align 4
  %72 = sext i32 %71 to i64
  %73 = getelementptr inbounds [301 x i32], [301 x i32]* %2, i64 0, i64 %72
  %74 = load i32, i32* %73, align 4
  store i32 %74, i32* %5, align 4
  %75 = load i32, i32* %4, align 4
  store i32 %75, i32* %9, align 4
  br label %76

76:                                               ; preds = %70, %63
  br label %77

77:                                               ; preds = %76
  %78 = load i32, i32* %4, align 4
  %79 = add nsw i32 %78, 1
  store i32 %79, i32* %4, align 4
  br label %59

80:                                               ; preds = %59
  store i32 0, i32* %4, align 4
  br label %81

81:                                               ; preds = %98, %80
  %82 = load i32, i32* %4, align 4
  %83 = load i32, i32* %8, align 4
  %84 = icmp slt i32 %82, %83
  br i1 %84, label %85, label %101

85:                                               ; preds = %81
  %86 = load i32, i32* %4, align 4
  %87 = sext i32 %86 to i64
  %88 = getelementptr inbounds [301 x i32], [301 x i32]* %2, i64 0, i64 %87
  %89 = load i32, i32* %88, align 4
  %90 = load i32, i32* %5, align 4
  %91 = icmp ne i32 %89, %90
  br i1 %91, label %92, label %97

92:                                               ; preds = %85
  %93 = load i32, i32* %4, align 4
  %94 = sext i32 %93 to i64
  %95 = getelementptr inbounds [301 x i32], [301 x i32]* %2, i64 0, i64 %94
  %96 = load i32, i32* %95, align 4
  store i32 %96, i32* %6, align 4
  br label %101

97:                                               ; preds = %85
  br label %98

98:                                               ; preds = %97
  %99 = load i32, i32* %4, align 4
  %100 = add nsw i32 %99, 1
  store i32 %100, i32* %4, align 4
  br label %81

101:                                              ; preds = %92, %81
  store i32 0, i32* %4, align 4
  br label %102

102:                                              ; preds = %126, %101
  %103 = load i32, i32* %4, align 4
  %104 = load i32, i32* %8, align 4
  %105 = icmp slt i32 %103, %104
  br i1 %105, label %106, label %129

106:                                              ; preds = %102
  %107 = load i32, i32* %4, align 4
  %108 = sext i32 %107 to i64
  %109 = getelementptr inbounds [301 x i32], [301 x i32]* %2, i64 0, i64 %108
  %110 = load i32, i32* %109, align 4
  %111 = load i32, i32* %6, align 4
  %112 = icmp sgt i32 %110, %111
  br i1 %112, label %113, label %125

113:                                              ; preds = %106
  %114 = load i32, i32* %4, align 4
  %115 = sext i32 %114 to i64
  %116 = getelementptr inbounds [301 x i32], [301 x i32]* %2, i64 0, i64 %115
  %117 = load i32, i32* %116, align 4
  %118 = load i32, i32* %5, align 4
  %119 = icmp ne i32 %117, %118
  br i1 %119, label %120, label %125

120:                                              ; preds = %113
  %121 = load i32, i32* %4, align 4
  %122 = sext i32 %121 to i64
  %123 = getelementptr inbounds [301 x i32], [301 x i32]* %2, i64 0, i64 %122
  %124 = load i32, i32* %123, align 4
  store i32 %124, i32* %6, align 4
  br label %125

125:                                              ; preds = %120, %113, %106
  br label %126

126:                                              ; preds = %125
  %127 = load i32, i32* %4, align 4
  %128 = add nsw i32 %127, 1
  store i32 %128, i32* %4, align 4
  br label %102

129:                                              ; preds = %102
  %130 = load i32, i32* %6, align 4
  %131 = call i32 (i8*, ...) @printf(i8* getelementptr inbounds ([3 x i8], [3 x i8]* @.str.2, i64 0, i64 0), i32 %130)
  br label %132

132:                                              ; preds = %129, %54
  br label %133

133:                                              ; preds = %132, %28
  %134 = load i32, i32* %1, align 4
  ret i32 %134
}

declare dso_local i32 @__isoc99_scanf(i8*, ...) #1

declare dso_local i32 @printf(i8*, ...) #1


!llvm.module.flags = !{!0}
!llvm.ident = !{!1}

!0 = !{i32 1, !"wchar_size", i32 4}
!1 = !{!"clang version 10.0.0-4ubuntu1 "}
